; ModuleID = '17/1188.c'
source_filename = "17/1188.c"
target datalayout = "e-m:e-p270:32:32-p271:32:32-p272:64:64-i64:64-f80:128-n8:16:32:64-S128"
target triple = "x86_64-pc-linux-gnu"

@.str = private unnamed_addr constant [3 x i8] c"%s\00", align 1
@.str.1 = private unnamed_addr constant [2 x i8] c" \00", align 1
@.str.2 = private unnamed_addr constant [2 x i8] c"$\00", align 1
@.str.3 = private unnamed_addr constant [2 x i8] c"?\00", align 1
@.str.4 = private unnamed_addr constant [2 x i8] c"\0A\00", align 1

; Function Attrs: noinline nounwind uwtable
define dso_local i32 @main() #0 {
  %1 = alloca i32, align 4
  %2 = alloca [101 x i8], align 16
  %3 = alloca i32, align 4
  %4 = alloca [101 x i32], align 16
  %5 = alloca i32, align 4
  %6 = alloca i32, align 4
  store i32 0, i32* %1, align 4
  store i32 0, i32* %3, align 4
  br label %7

7:                                                ; preds = %14, %0
  %8 = load i32, i32* %3, align 4
  %9 = icmp sle i32 %8, 100
  br i1 %9, label %10, label %17

10:                                               ; preds = %7
  %11 = load i32, i32* %3, align 4
  %12 = sext i32 %11 to i64
  %13 = getelementptr inbounds [101 x i32], [101 x i32]* %4, i64 0, i64 %12
  store i32 1, i32* %13, align 4
  br label %14

14:                                               ; preds = %10
  %15 = load i32, i32* %3, align 4
  %16 = add nsw i32 %15, 1
  store i32 %16, i32* %3, align 4
  br label %7

17:                                               ; preds = %7
  br label %18

18:                                               ; preds = %151, %17
  %19 = getelementptr inbounds [101 x i8], [101 x i8]* %2, i64 0, i64 0
  %20 = call i32 (i8*, ...) @__isoc99_scanf(i8* getelementptr inbounds ([3 x i8], [3 x i8]* @.str, i64 0, i64 0), i8* %19)
  %21 = icmp ne i32 %20, -1
  br i1 %21, label %22, label %152

22:                                               ; preds = %18
  %23 = getelementptr inbounds [101 x i8], [101 x i8]* %2, i64 0, i64 0
  %24 = call i32 @puts(i8* %23)
  store i32 0, i32* %3, align 4
  br label %25

25:                                               ; preds = %98, %22
  %26 = load i32, i32* %3, align 4
  %27 = sext i32 %26 to i64
  %28 = getelementptr inbounds [101 x i8], [101 x i8]* %2, i64 0, i64 %27
  %29 = load i8, i8* %28, align 1
  %30 = sext i8 %29 to i32
  %31 = icmp sge i32 %30, 97
  br i1 %31, label %32, label %39

32:                                               ; preds = %25
  %33 = load i32, i32* %3, align 4
  %34 = sext i32 %33 to i64
  %35 = getelementptr inbounds [101 x i8], [101 x i8]* %2, i64 0, i64 %34
  %36 = load i8, i8* %35, align 1
  %37 = sext i8 %36 to i32
  %38 = icmp sle i32 %37, 122
  br i1 %38, label %53, label %39

39:                                               ; preds = %32, %25
  %40 = load i32, i32* %3, align 4
  %41 = sext i32 %40 to i64
  %42 = getelementptr inbounds [101 x i8], [101 x i8]* %2, i64 0, i64 %41
  %43 = load i8, i8* %42, align 1
  %44 = sext i8 %43 to i32
  %45 = icmp sge i32 %44, 65
  br i1 %45, label %46, label %57

46:                                               ; preds = %39
  %47 = load i32, i32* %3, align 4
  %48 = sext i32 %47 to i64
  %49 = getelementptr inbounds [101 x i8], [101 x i8]* %2, i64 0, i64 %48
  %50 = load i8, i8* %49, align 1
  %51 = sext i8 %50 to i32
  %52 = icmp sle i32 %51, 90
  br i1 %52, label %53, label %57

53:                                               ; preds = %46, %32
  %54 = load i32, i32* %3, align 4
  %55 = sext i32 %54 to i64
  %56 = getelementptr inbounds [101 x i32], [101 x i32]* %4, i64 0, i64 %55
  store i32 0, i32* %56, align 4
  br label %57

57:                                               ; preds = %53, %46, %39
  %58 = load i32, i32* %3, align 4
  %59 = sext i32 %58 to i64
  %60 = getelementptr inbounds [101 x i8], [101 x i8]* %2, i64 0, i64 %59
  %61 = load i8, i8* %60, align 1
  %62 = sext i8 %61 to i32
  %63 = icmp eq i32 %62, 41
  br i1 %63, label %64, label %95

64:                                               ; preds = %57
  %65 = load i32, i32* %3, align 4
  %66 = sub nsw i32 %65, 1
  store i32 %66, i32* %5, align 4
  br label %67

67:                                               ; preds = %91, %64
  %68 = load i32, i32* %5, align 4
  %69 = icmp sge i32 %68, 0
  br i1 %69, label %70, label %94

70:                                               ; preds = %67
  %71 = load i32, i32* %5, align 4
  %72 = sext i32 %71 to i64
  %73 = getelementptr inbounds [101 x i8], [101 x i8]* %2, i64 0, i64 %72
  %74 = load i8, i8* %73, align 1
  %75 = sext i8 %74 to i32
  %76 = icmp eq i32 %75, 40
  br i1 %76, label %77, label %90

77:                                               ; preds = %70
  %78 = load i32, i32* %5, align 4
  %79 = sext i32 %78 to i64
  %80 = getelementptr inbounds [101 x i32], [101 x i32]* %4, i64 0, i64 %79
  %81 = load i32, i32* %80, align 4
  %82 = icmp eq i32 %81, 1
  br i1 %82, label %83, label %90

83:                                               ; preds = %77
  %84 = load i32, i32* %5, align 4
  %85 = sext i32 %84 to i64
  %86 = getelementptr inbounds [101 x i32], [101 x i32]* %4, i64 0, i64 %85
  store i32 0, i32* %86, align 4
  %87 = load i32, i32* %3, align 4
  %88 = sext i32 %87 to i64
  %89 = getelementptr inbounds [101 x i32], [101 x i32]* %4, i64 0, i64 %88
  store i32 0, i32* %89, align 4
  br label %94

90:                                               ; preds = %77, %70
  br label %91

91:                                               ; preds = %90
  %92 = load i32, i32* %5, align 4
  %93 = add nsw i32 %92, -1
  store i32 %93, i32* %5, align 4
  br label %67

94:                                               ; preds = %83, %67
  br label %95

95:                                               ; preds = %94, %57
  %96 = load i32, i32* %3, align 4
  %97 = add nsw i32 %96, 1
  store i32 %97, i32* %3, align 4
  br label %98

98:                                               ; preds = %95
  %99 = load i32, i32* %3, align 4
  %100 = sext i32 %99 to i64
  %101 = getelementptr inbounds [101 x i8], [101 x i8]* %2, i64 0, i64 %100
  %102 = load i8, i8* %101, align 1
  %103 = sext i8 %102 to i32
  %104 = icmp ne i32 %103, 0
  br i1 %104, label %25, label %105

105:                                              ; preds = %98
  %106 = load i32, i32* %3, align 4
  %107 = sub nsw i32 %106, 1
  store i32 %107, i32* %6, align 4
  store i32 0, i32* %3, align 4
  br label %108

108:                                              ; preds = %133, %105
  %109 = load i32, i32* %3, align 4
  %110 = load i32, i32* %6, align 4
  %111 = icmp sle i32 %109, %110
  br i1 %111, label %112, label %136

112:                                              ; preds = %108
  %113 = load i32, i32* %3, align 4
  %114 = sext i32 %113 to i64
  %115 = getelementptr inbounds [101 x i32], [101 x i32]* %4, i64 0, i64 %114
  %116 = load i32, i32* %115, align 4
  %117 = icmp eq i32 %116, 0
  br i1 %117, label %118, label %120

118:                                              ; preds = %112
  %119 = call i32 (i8*, ...) @printf(i8* getelementptr inbounds ([2 x i8], [2 x i8]* @.str.1, i64 0, i64 0))
  br label %132

120:                                              ; preds = %112
  %121 = load i32, i32* %3, align 4
  %122 = sext i32 %121 to i64
  %123 = getelementptr inbounds [101 x i8], [101 x i8]* %2, i64 0, i64 %122
  %124 = load i8, i8* %123, align 1
  %125 = sext i8 %124 to i32
  %126 = icmp eq i32 %125, 40
  br i1 %126, label %127, label %129

127:                                              ; preds = %120
  %128 = call i32 (i8*, ...) @printf(i8* getelementptr inbounds ([2 x i8], [2 x i8]* @.str.2, i64 0, i64 0))
  br label %131

129:                                              ; preds = %120
  %130 = call i32 (i8*, ...) @printf(i8* getelementptr inbounds ([2 x i8], [2 x i8]* @.str.3, i64 0, i64 0))
  br label %131

131:                                              ; preds = %129, %127
  br label %132

132:                                              ; preds = %131, %118
  br label %133

133:                                              ; preds = %132
  %134 = load i32, i32* %3, align 4
  %135 = add nsw i32 %134, 1
  store i32 %135, i32* %3, align 4
  br label %108

136:                                              ; preds = %108
  %137 = call i32 (i8*, ...) @printf(i8* getelementptr inbounds ([2 x i8], [2 x i8]* @.str.4, i64 0, i64 0))
  store i32 0, i32* %3, align 4
  br label %138

138:                                              ; preds = %148, %136
  %139 = load i32, i32* %3, align 4
  %140 = icmp sle i32 %139, 100
  br i1 %140, label %141, label %151

141:                                              ; preds = %138
  %142 = load i32, i32* %3, align 4
  %143 = sext i32 %142 to i64
  %144 = getelementptr inbounds [101 x i32], [101 x i32]* %4, i64 0, i64 %143
  store i32 1, i32* %144, align 4
  %145 = load i32, i32* %3, align 4
  %146 = sext i32 %145 to i64
  %147 = getelementptr inbounds [101 x i8], [101 x i8]* %2, i64 0, i64 %146
  store i8 97, i8* %147, align 1
  br label %148

148:                                              ; preds = %141
  %149 = load i32, i32* %3, align 4
  %150 = add nsw i32 %149, 1
  store i32 %150, i32* %3, align 4
  br label %138

151:                                              ; preds = %138
  br label %18

152:                                              ; preds = %18
  ret i32 0
}

declare dso_local i32 @__isoc99_scanf(i8*, ...) #1

declare dso_local i32 @puts(i8*) #1

declare dso_local i32 @printf(i8*, ...) #1


!llvm.module.flags = !{!0}
!llvm.ident = !{!1}

!0 = !{i32 1, !"wchar_size", i32 4}
!1 = !{!"clang version 10.0.0-4ubuntu1 "}
